(iNeuronNetwork
NeuronNet
p0
(dp1
S'layers'
p2
(lp3
(iNeuronNetwork
NeuronLayer
p4
(dp5
S'neurons'
p6
(lp7
(iNeuronNetwork
Neuron
p8
(dp9
S'biasLoc'
p10
I0
sS'inputs'
p11
(lp12
F1.0
asS'weights'
p13
(lp14
F1.0
asS'output'
p15
F1.0
sba(iNeuronNetwork
Neuron
p16
(dp17
g10
I0
sg11
(lp18
F1.0
asg13
(lp19
F1.0
asg15
F1.0
sbasba(iNeuronNetwork
NeuronLayer
p20
(dp21
g6
(lp22
(iNeuronNetwork
Neuron
p23
(dp24
g10
I2
sg11
(lp25
F1.0
aF1.0
aI1
asg13
(lp26
F-1.8073485958314999
aF2.320565387201613
aF1.3389438521372432
asg15
F0.9759745139349882
sba(iNeuronNetwork
Neuron
p27
(dp28
g10
I2
sg11
(lp29
F1.0
aF1.0
aI1
asg13
(lp30
F2.4530381345270227
aF3.056041601650197
aF-1.175057442862235
asg15
F0.9998280344800988
sba(iNeuronNetwork
Neuron
p31
(dp32
g10
I2
sg11
(lp33
F1.0
aF1.0
aI1
asg13
(lp34
F-2.438005380984859
aF-0.9653627907978019
aF2.314884865581292
asg15
F0.1018380480304954
sbasba(iNeuronNetwork
NeuronLayer
p35
(dp36
g6
(lp37
(iNeuronNetwork
Neuron
p38
(dp39
g10
I3
sg11
(lp40
F0.9759745139349882
aF0.9998280344800988
aF0.1018380480304954
aI1
asg13
(lp41
F-3.19784256100835
aF3.5079272909775145
aF3.375984771730541
aF-2.0953364345327534
asg15
F0.0612007022532331
sba(iNeuronNetwork
Neuron
p42
(dp43
g10
I3
sg11
(lp44
F0.9759745139349882
aF0.9998280344800988
aF0.1018380480304954
aI1
asg13
(lp45
F3.236835940878423
aF-3.5412631316771144
aF-3.4092583044607925
aF2.1077555250947424
asg15
F0.9403611661038109
sbasbasS'value'
p46
(lp47
F0.0612007022532331
aF0.9403611661038109
asb.